; Function Attrs: nofree nounwind memory(read, inaccessiblemem: none) uwtable
define hidden range(i32 -1, 1) i32 @mbedtls_version_check_feature(ptr noundef readonly %0) local_unnamed_addr #0 {
  %2 = icmp eq ptr %0, null
  br i1 %2, label %.loopexit, label %3

3:                                                ; preds = %1
  %4 = tail call i32 @strncmp(ptr noundef nonnull dereferenceable(1) %0, ptr noundef nonnull dereferenceable(9) @.str, i64 noundef 8) #2
  %.not = icmp eq i32 %4, 0
  br i1 %.not, label %5, label %.loopexit

5:                                                ; preds = %3
  %6 = getelementptr inbounds nuw i8, ptr %0, i64 8
  br label %10

7:                                                ; preds = %10
  %8 = getelementptr inbounds nuw i8, ptr %.013, i64 8
  %9 = load ptr, ptr %8, align 8, !tbaa !3
  %.not11 = icmp eq ptr %9, null
  br i1 %.not11, label %.loopexit, label %10, !llvm.loop !8

10:                                               ; preds = %5, %7
  %11 = phi ptr [ @.str.1, %5 ], [ %9, %7 ]
  %.013 = phi ptr [ @features, %5 ], [ %8, %7 ]
  %12 = tail call i32 @strcmp(ptr noundef nonnull dereferenceable(1) %11, ptr noundef nonnull dereferenceable(1) %6) #2
  %.not12 = icmp eq i32 %12, 0
  br i1 %.not12, label %.loopexit, label %7

.loopexit:                                        ; preds = %7, %10, %3, %1
  %.08 = phi i32 [ -1, %1 ], [ -1, %3 ], [ -1, %7 ], [ 0, %10 ]
  ret i32 %.08
}